target datalayout = "e-m:e-p270:32:32-p271:32:32-p272:64:64-i64:64-i128:128-f80:128-n8:16:32:64-S128"
target triple = "x86_64-pc-linux-gnu"

%struct.JSValue = type { %union.JSValueUnion, i64 }
%union.JSValueUnion = type { double }

@.str.83 = private unnamed_addr constant [8 x i8] c"<input>\00", align 1

; Function Attrs: nounwind uwtable
define internal ptr @JS_ToCStringLen(ptr noundef %0, ptr noundef %1, i64 %2, i64 %3) #0 {
  %5 = alloca %struct.JSValue, align 8
  %6 = alloca ptr, align 8
  %7 = alloca ptr, align 8
  %8 = getelementptr inbounds { i64, i64 }, ptr %5, i32 0, i32 0
  store i64 %2, ptr %8, align 8
  %9 = getelementptr inbounds { i64, i64 }, ptr %5, i32 0, i32 1
  store i64 %3, ptr %9, align 8
  store ptr %0, ptr %6, align 8
  store ptr %1, ptr %7, align 8
  %10 = load ptr, ptr %6, align 8
  %11 = load ptr, ptr %7, align 8
  %12 = getelementptr inbounds { i64, i64 }, ptr %5, i32 0, i32 0
  %13 = load i64, ptr %12, align 8
  %14 = getelementptr inbounds { i64, i64 }, ptr %5, i32 0, i32 1
  %15 = load i64, ptr %14, align 8
  %16 = call ptr @JS_ToCStringLen2(ptr noundef %10, ptr noundef %11, i64 %13, i64 %15, i32 noundef 0)
  ret ptr %16
}

; Function Attrs: nounwind uwtable
define internal { i64, i64 } @js_std_parseExtJSON(ptr noundef %0, i64 %1, i64 %2, i32 noundef %3, ptr noundef %4) #0 {
  %6 = alloca %struct.JSValue, align 8
  %7 = alloca %struct.JSValue, align 8
  %8 = alloca ptr, align 8
  %9 = alloca i32, align 4
  %10 = alloca ptr, align 8
  %11 = alloca %struct.JSValue, align 8
  %12 = alloca ptr, align 8
  %13 = alloca i64, align 8
  %14 = alloca %struct.JSValue, align 8
  %15 = getelementptr inbounds { i64, i64 }, ptr %7, i32 0, i32 0
  store i64 %1, ptr %15, align 8
  %16 = getelementptr inbounds { i64, i64 }, ptr %7, i32 0, i32 1
  store i64 %2, ptr %16, align 8
  store ptr %0, ptr %8, align 8
  store i32 %3, ptr %9, align 4
  store ptr %4, ptr %10, align 8
  %17 = load ptr, ptr %8, align 8
  %18 = load ptr, ptr %10, align 8
  %19 = getelementptr %struct.JSValue, ptr %18, i64 0
  %20 = getelementptr inbounds { i64, i64 }, ptr %19, i32 0, i32 0
  %21 = load i64, ptr %20, align 8
  %22 = getelementptr inbounds { i64, i64 }, ptr %19, i32 0, i32 1
  %23 = load i64, ptr %22, align 8
  %24 = call ptr @JS_ToCStringLen(ptr noundef %17, ptr noundef %13, i64 %21, i64 %23)
  store ptr %24, ptr %12, align 8
  %25 = load ptr, ptr %12, align 8
  %26 = icmp ne ptr %25, null
  br i1 %26, label %30, label %27

27:                                               ; preds = %5
  %28 = getelementptr inbounds %struct.JSValue, ptr %6, i32 0, i32 0
  store i32 0, ptr %28, align 8
  %29 = getelementptr inbounds %struct.JSValue, ptr %6, i32 0, i32 1
  store i64 6, ptr %29, align 8
  br label %41

30:                                               ; preds = %5
  %31 = load ptr, ptr %8, align 8
  %32 = load ptr, ptr %12, align 8
  %33 = load i64, ptr %13, align 8
  %34 = call { i64, i64 } @JS_ParseJSON2(ptr noundef %31, ptr noundef %32, i64 noundef %33, ptr noundef @.str.83, i32 noundef 1)
  %35 = getelementptr inbounds { i64, i64 }, ptr %14, i32 0, i32 0
  %36 = extractvalue { i64, i64 } %34, 0
  store i64 %36, ptr %35, align 8
  %37 = getelementptr inbounds { i64, i64 }, ptr %14, i32 0, i32 1
  %38 = extractvalue { i64, i64 } %34, 1
  store i64 %38, ptr %37, align 8
  call void @llvm.memcpy.p0.p0.i64(ptr align 8 %11, ptr align 8 %14, i64 16, i1 false)
  %39 = load ptr, ptr %8, align 8
  %40 = load ptr, ptr %12, align 8
  call void @JS_FreeCString(ptr noundef %39, ptr noundef %40)
  call void @llvm.memcpy.p0.p0.i64(ptr align 8 %6, ptr align 8 %11, i64 16, i1 false)
  br label %41

41:                                               ; preds = %30, %27
  %42 = load { i64, i64 }, ptr %6, align 8
  ret { i64, i64 } %42
}