; Function Attrs: nounwind uwtable
define internal { i64, i64 } @js_std_parseExtJSON(ptr noundef %0, i64 %1, i64 %2, i32 %3, ptr nocapture noundef readonly %4) #0 {
  %6 = alloca i64, align 8
  %7 = load i64, ptr %4, align 8
  %8 = getelementptr inbounds i8, ptr %4, i64 8
  %9 = load i64, ptr %8, align 8
  %10 = call ptr @JS_ToCStringLen2(ptr noundef %0, ptr noundef nonnull %6, i64 %7, i64 %9, i32 noundef 0) #29
  %.not = icmp eq ptr %10, null
  br i1 %.not, label %16, label %11

11:                                               ; preds = %5
  %12 = load i64, ptr %6, align 8
  %13 = call { i64, i64 } @JS_ParseJSON2(ptr noundef %0, ptr noundef nonnull %10, i64 noundef %12, ptr noundef nonnull @.str.83, i32 noundef 1) #29
  %14 = extractvalue { i64, i64 } %13, 0
  %15 = extractvalue { i64, i64 } %13, 1
  call void @JS_FreeCString(ptr noundef %0, ptr noundef nonnull %10) #29
  br label %16

16:                                               ; preds = %5, %11
  %.sroa.3.sroa.2.0 = phi i64 [ %15, %11 ], [ 6, %5 ]
  %.sroa.010.0.insert.insert = phi i64 [ %14, %11 ], [ 0, %5 ]
  %.fca.0.insert = insertvalue { i64, i64 } poison, i64 %.sroa.010.0.insert.insert, 0
  %.fca.1.insert = insertvalue { i64, i64 } %.fca.0.insert, i64 %.sroa.3.sroa.2.0, 1
  ret { i64, i64 } %.fca.1.insert
}